; Function Attrs: mustprogress uwtable
define internal noundef zeroext i1 @_ZNSt17_Function_handlerIFbRN12_GLOBAL__N_111RootPresetsEPKN4Json5ValueEP11cmJSONStateEZN19cmJSONHelperBuilder6ObjectIS1_E4BindIS1_St6vectorINSt7__cxx1112basic_stringIcSt11char_traitsIcESaIcEEESaISK_EESt8functionIFbRSM_S6_S8_EEEERSC_RKSt17basic_string_viewIcSI_EMT_T0_T1_bEUlS2_S6_S8_E_E9_M_invokeERKSt9_Any_dataS2_OS6_OS8_(ptr nocapture noundef nonnull readonly align 8 dereferenceable(16) %0, ptr noundef nonnull align 8 dereferenceable(160) %1, ptr nocapture noundef nonnull readonly align 8 dereferenceable(8) %2, ptr nocapture noundef nonnull readonly align 8 dereferenceable(8) %3) #3 align 2 {
  %5 = alloca ptr, align 8
  %6 = alloca ptr, align 8
  %.val = load ptr, ptr %0, align 8
  %.val4 = load ptr, ptr %2, align 8
  %.val5 = load ptr, ptr %3, align 8
  %7 = getelementptr inbounds i8, ptr %.val, i64 32
  %8 = load i64, ptr %7, align 8
  call void @llvm.lifetime.start.p0(i64 8, ptr nonnull %5)
  call void @llvm.lifetime.start.p0(i64 8, ptr nonnull %6)
  store ptr %.val4, ptr %5, align 8
  store ptr %.val5, ptr %6, align 8
  %9 = getelementptr inbounds i8, ptr %.val, i64 16
  %10 = load ptr, ptr %9, align 8
  %.not.i.i.i.i.i = icmp eq ptr %10, null
  br i1 %.not.i.i.i.i.i, label %11, label %_ZSt10__invoke_rIbRZN19cmJSONHelperBuilder6ObjectIN12_GLOBAL__N_111RootPresetsEE4BindIS3_St6vectorINSt7__cxx1112basic_stringIcSt11char_traitsIcESaIcEEESaISC_EESt8functionIFbRSE_PKN4Json5ValueEP11cmJSONStateEEEERS4_RKSt17basic_string_viewIcSA_EMT_T0_T1_bEUlRS3_SK_SM_E_JSY_SK_SM_EENSt9enable_ifIX16is_invocable_r_vISU_SV_DpT1_EESU_E4typeEOSV_DpOS12_.exit

11:                                               ; preds = %4
  tail call void @_ZSt25__throw_bad_function_callv() #24
  unreachable

_ZSt10__invoke_rIbRZN19cmJSONHelperBuilder6ObjectIN12_GLOBAL__N_111RootPresetsEE4BindIS3_St6vectorINSt7__cxx1112basic_stringIcSt11char_traitsIcESaIcEEESaISC_EESt8functionIFbRSE_PKN4Json5ValueEP11cmJSONStateEEEERS4_RKSt17basic_string_viewIcSA_EMT_T0_T1_bEUlRS3_SK_SM_E_JSY_SK_SM_EENSt9enable_ifIX16is_invocable_r_vISU_SV_DpT1_EESU_E4typeEOSV_DpOS12_.exit: ; preds = %4
  %12 = getelementptr inbounds i8, ptr %1, i64 %8
  %13 = getelementptr inbounds i8, ptr %.val, i64 24
  %14 = load ptr, ptr %13, align 8
  %15 = call noundef zeroext i1 %14(ptr noundef nonnull align 8 dereferenceable(16) %.val, ptr noundef nonnull align 8 dereferenceable(24) %12, ptr noundef nonnull align 8 dereferenceable(8) %5, ptr noundef nonnull align 8 dereferenceable(8) %6)
  call void @llvm.lifetime.end.p0(i64 8, ptr nonnull %5)
  call void @llvm.lifetime.end.p0(i64 8, ptr nonnull %6)
  ret i1 %15
}